-----BEGIN CERTIFICATE-----
MIID3jCCA0egAwIBAgIQZLO0W7jQXgexRZd1vOUjcjANBgkqhkiG9w0BAQsFADBs
MQswCQYDVQQGEwJDTjELMAkGA1UECAwCVEoxDDAKBgNVBAoMA1RKVTEUMBIGA1UE
CwwLYmVpeWFuZ3l1YW4xCzAJBgNVBAMMAkNTMR8wHQYJKoZIhvcNAQkBFhBsamZw
b3dlckAxNjMuY29tMB4XDTE5MDQwMjAzMTU1OFoXDTI5MDMzMDAzMTU1OFowbjEL
MAkGA1UEBhMCQ04xCzAJBgNVBAgMAlRKMQwwCgYDVQQKDANUSlUxFDASBgNVBAsM
C2JlaXlhbmd5dWFuMQ0wCwYDVQQDDARiMzI2MR8wHQYJKoZIhvcNAQkBFhBsamZw
b3dlckAxNjMuY29tMIIBtzCCASwGByqGSM44BAEwggEfAoGBAIf5mURPOqnbGwiz
MZ5csc5YmQ6Pph0m1npHHTTnhUljnks/lb/7AP/fpRCmOsN5/XUdLV5N4O4lIO1J
oUep6Hb0vc4netftcqo9M1qOPknLAR18/9TKp4w13qaLLQObGJBL36DkZSWmyQAx
t+WiffxmRXT9n/3a67ro/MkdEX0NAhUA1fhQivopjzakn45YcLV3DkbNmY8CgYEA
hu1MpPNlQeMh37NpHr7FAkWCEv5cuNgV62NePk+Hy9Emf2jw1NguTMgppmEMK1G9
E1dSp5DF1rqI9KqNorOGO4N/uykxacC8oU5hpCkCXjuaaMCnN2Q5WSAQJNJpROlN
b6jADt2Om5S1LEPnmJznQXlSfAsvU4M4XUbiFk+zZgIDgYQAAoGAFPiGcdNQAPd2
B8Pc1+1KAG6Jq7or7AFgpPXjVyTLRwyyoYQSx/mfxG14nBlArC+ajRVngj3bRwC8
xaNxDrv/u6/dqWhQaiVbOYNJwS3UWN4QP319kbjS4U9zisfb8DtCSzHIm84q0iEJ
99Y5jdvVREqGFDD7epEKf6SrRHdbyDKjZjBkMB0GA1UdDgQWBBTe8/D1DNmKXmog
meezAiMitzFwvjAfBgNVHSMEGDAWgBR9CGmxlDeUD83cON08Gc50bw+89DASBgNV
HRMBAf8ECDAGAQH/AgEAMA4GA1UdDwEB/wQEAwIBhjANBgkqhkiG9w0BAQsFAAOB
gQBQ4mkO2UlWT2BqnqQXkDs9Ce1ChSu8ZnOFQSMxvV4kTUKsvxwz6FMjJ1KqbvwM
VLzXdJ9A87zxQ8DCncICnCZj0/ils9ISVSa0S6g2D6VUFvSovTKTiiqVQEVo9uQI
YkLen+V5gFGfbJL7pRtnfuXy6ITNKfh5Fv9gECkdjP2mrQ==
-----END CERTIFICATE-----
Certificate:
    Data:
        Version: 3 (0x2)
        Serial Number:
            64:b3:b4:5b:b8:d0:5e:07:b1:45:97:75:bc:e5:23:71
        Signature Algorithm: sha256WithRSAEncryption
        Issuer: C=CN, ST=TJ, O=TJU, OU=beiyangyuan, CN=CS/emailAddress=ljfpower@163.com
        Validity
            Not Before: Apr  2 03:12:56 2019 GMT
            Not After : Mar 28 03:12:56 2039 GMT
        Subject: C=CN, ST=TJ, O=TJU, OU=beiyangyuan, CN=CS/emailAddress=ljfpower@163.com
        Subject Public Key Info:
            Public Key Algorithm: rsaEncryption
                RSA Public-Key: (1024 bit)
                Modulus:
                    00:cf:be:b2:f1:b6:ff:6b:7d:52:1f:d1:78:f2:0e:
                    22:69:c7:53:cd:79:f3:b8:55:55:a0:3d:03:f3:d3:
                    45:37:4f:dc:be:85:6a:73:4f:05:1a:56:86:95:bd:
                    55:d9:1e:1e:98:cb:eb:88:de:24:91:12:1e:e1:47:
                    13:c7:4f:8d:33:32:74:fa:30:5a:c1:30:4c:a0:f5:
                    c1:7f:29:8e:67:e3:33:c1:52:6b:c9:9a:c1:f0:a2:
                    ee:39:85:bd:c5:b6:d4:30:8a:db:3b:d7:14:56:e8:
                    4e:d2:de:04:b0:cd:9a:3a:6e:b2:8d:ed:e5:0f:56:
                    9c:2d:da:c3:d9:4e:64:0a:17
                Exponent: 65537 (0x10001)
        X509v3 extensions:
            X509v3 Subject Key Identifier: 
                7D:08:69:B1:94:37:94:0F:CD:DC:38:DD:3C:19:CE:74:6F:0F:BC:F4
            X509v3 Authority Key Identifier: 
                keyid:7D:08:69:B1:94:37:94:0F:CD:DC:38:DD:3C:19:CE:74:6F:0F:BC:F4

            X509v3 Basic Constraints: critical
                CA:TRUE
            X509v3 Key Usage: critical
                Digital Signature, Certificate Sign, CRL Sign
    Signature Algorithm: sha256WithRSAEncryption
         08:a0:db:81:34:91:ba:c6:c5:ce:1d:61:ff:e2:44:a8:f0:9c:
         32:f9:01:ac:5b:b8:2d:49:d3:3a:55:86:8a:55:88:dd:8e:bf:
         b1:07:b3:d0:42:a6:1c:5f:84:fd:a9:0d:e3:66:79:8b:2d:30:
         66:3b:14:6b:2a:ff:d5:0e:c8:55:95:b7:ff:a8:13:9c:64:b8:
         c3:92:5e:3c:82:92:64:b4:eb:8a:ae:e0:97:b6:18:a5:b4:01:
         43:a7:6b:1d:28:d6:15:71:75:1e:d1:f8:2c:52:96:1f:44:98:
         1e:35:b4:43:01:a0:3e:83:e5:88:0d:1d:fb:2d:5e:c4:79:64:
         86:38
-----BEGIN CERTIFICATE-----
MIICwDCCAimgAwIBAgIQZLO0W7jQXgexRZd1vOUjcTANBgkqhkiG9w0BAQsFADBs
MQswCQYDVQQGEwJDTjELMAkGA1UECAwCVEoxDDAKBgNVBAoMA1RKVTEUMBIGA1UE
CwwLYmVpeWFuZ3l1YW4xCzAJBgNVBAMMAkNTMR8wHQYJKoZIhvcNAQkBFhBsamZw
b3dlckAxNjMuY29tMB4XDTE5MDQwMjAzMTI1NloXDTM5MDMyODAzMTI1NlowbDEL
MAkGA1UEBhMCQ04xCzAJBgNVBAgMAlRKMQwwCgYDVQQKDANUSlUxFDASBgNVBAsM
C2JlaXlhbmd5dWFuMQswCQYDVQQDDAJDUzEfMB0GCSqGSIb3DQEJARYQbGpmcG93
ZXJAMTYzLmNvbTCBnzANBgkqhkiG9w0BAQEFAAOBjQAwgYkCgYEAz76y8bb/a31S
H9F48g4iacdTzXnzuFVVoD0D89NFN0/cvoVqc08FGlaGlb1V2R4emMvriN4kkRIe
4UcTx0+NMzJ0+jBawTBMoPXBfymOZ+MzwVJryZrB8KLuOYW9xbbUMIrbO9cUVuhO
0t4EsM2aOm6yje3lD1acLdrD2U5kChcCAwEAAaNjMGEwHQYDVR0OBBYEFH0IabGU
N5QPzdw43TwZznRvD7z0MB8GA1UdIwQYMBaAFH0IabGUN5QPzdw43TwZznRvD7z0
MA8GA1UdEwEB/wQFMAMBAf8wDgYDVR0PAQH/BAQDAgGGMA0GCSqGSIb3DQEBCwUA
A4GBAAig24E0kbrGxc4dYf/iRKjwnDL5AaxbuC1J0zpVhopViN2Ov7EHs9BCphxf
hP2pDeNmeYstMGY7FGsq/9UOyFWVt/+oE5xkuMOSXjyCkmS064qu4Je2GKW0AUOn
ax0o1hVxdR7R+CxSlh9EmB41tEMBoD6D5YgNHfstXsR5ZIY4
-----END CERTIFICATE-----
